; Function Attrs: mustprogress ssp uwtable
define void @_ZN6open3d4core10TensorList11ConcatenateERKS1_S3_(ptr dead_on_unwind noalias nonnull writable sret(%"class.open3d::core::TensorList") align 8 %0, ptr noundef nonnull align 8 dereferenceable(225) %1, ptr noundef nonnull align 8 dereferenceable(225) %2) local_unnamed_addr #0 align 2 personality ptr @__gxx_personality_v0 {
  tail call void @_ZN6open3d4core10TensorListC2ERKS1_(ptr noundef nonnull align 8 dereferenceable(225) %0, ptr noundef nonnull align 8 dereferenceable(225) %1)
  invoke void @_ZN6open3d4core10TensorList8CopyFromERKS1_(ptr noundef nonnull align 8 dereferenceable(225) %0, ptr noundef nonnull align 8 dereferenceable(225) %1)
          to label %_ZNK6open3d4core10TensorList5CloneEv.exit unwind label %4

common.resume:                                    ; preds = %6, %4
  %common.resume.op = phi { ptr, i32 } [ %5, %4 ], [ %7, %6 ]
  tail call void @_ZN6open3d4core10TensorListD2Ev(ptr noundef nonnull align 8 dereferenceable(225) %0) #29
  resume { ptr, i32 } %common.resume.op

4:                                                ; preds = %3
  %5 = landingpad { ptr, i32 }
          cleanup
  br label %common.resume

_ZNK6open3d4core10TensorList5CloneEv.exit:        ; preds = %3
  invoke void @_ZN6open3d4core10TensorList6ExtendERKS1_(ptr noundef nonnull align 8 dereferenceable(225) %0, ptr noundef nonnull align 8 dereferenceable(225) %2)
          to label %8 unwind label %6

6:                                                ; preds = %_ZNK6open3d4core10TensorList5CloneEv.exit
  %7 = landingpad { ptr, i32 }
          cleanup
  br label %common.resume

8:                                                ; preds = %_ZNK6open3d4core10TensorList5CloneEv.exit
  ret void
}